; Function Attrs: mustprogress uwtable
define noundef zeroext i1 @_ZNK32pxrInternal_v0_24__pxrReserved__16UsdSkelAnimQuery40GetBlendShapeWeightTimeSamplesInIntervalERKNS_10GfIntervalEPSt6vectorIdSaIdEE(ptr nocapture noundef nonnull readonly align 8 dereferenceable(8) %0, ptr noundef nonnull align 8 dereferenceable(32) %1, ptr noundef %2) local_unnamed_addr #0 align 2 {
  %4 = alloca %"class.pxrInternal_v0_24__pxrReserved__::TfCallContext", align 8
  %5 = alloca %"class.pxrInternal_v0_24__pxrReserved__::TfCallContext", align 8
  %6 = load ptr, ptr %0, align 8
  %.not.i.i.not = icmp eq ptr %6, null
  br i1 %.not.i.i.not, label %7, label %.critedge.thread

.critedge.thread:                                 ; preds = %3
  call void @llvm.lifetime.start.p0(i64 40, ptr nonnull %4)
  br label %_ZNK32pxrInternal_v0_24__pxrReserved__8TfRefPtrINS_21UsdSkel_AnimQueryImplEEptEv.exit

7:                                                ; preds = %3
  store ptr @.str, ptr %5, align 8
  %8 = getelementptr inbounds nuw i8, ptr %5, i64 8
  store ptr @__func__._ZNK32pxrInternal_v0_24__pxrReserved__16UsdSkelAnimQuery40GetBlendShapeWeightTimeSamplesInIntervalERKNS_10GfIntervalEPSt6vectorIdSaIdEE, ptr %8, align 8
  %9 = getelementptr inbounds nuw i8, ptr %5, i64 16
  store i64 162, ptr %9, align 8
  %10 = getelementptr inbounds nuw i8, ptr %5, i64 24
  store ptr @__PRETTY_FUNCTION__._ZNK32pxrInternal_v0_24__pxrReserved__16UsdSkelAnimQuery40GetBlendShapeWeightTimeSamplesInIntervalERKNS_10GfIntervalEPSt6vectorIdSaIdEE, ptr %10, align 8
  %11 = getelementptr inbounds nuw i8, ptr %5, i64 32
  store i8 0, ptr %11, align 8
  %12 = tail call noundef ptr (ptr, ...) @_ZN32pxrInternal_v0_24__pxrReserved__21Tf_VerifyStringFormatEPKcz(ptr noundef nonnull @.str.2)
  %13 = call noundef zeroext i1 @_ZN32pxrInternal_v0_24__pxrReserved__21Tf_FailedVerifyHelperERKNS_13TfCallContextEPKcS4_(ptr noundef nonnull align 8 dereferenceable(33) %5, ptr noundef nonnull @.str.1, ptr noundef %12)
  br i1 %13, label %.critedge, label %24

.critedge:                                        ; preds = %7
  %.pr = load ptr, ptr %0, align 8
  call void @llvm.lifetime.start.p0(i64 40, ptr nonnull %4)
  %.not.i = icmp eq ptr %.pr, null
  br i1 %.not.i, label %14, label %_ZNK32pxrInternal_v0_24__pxrReserved__8TfRefPtrINS_21UsdSkel_AnimQueryImplEEptEv.exit

14:                                               ; preds = %.critedge
  store ptr @.str.6, ptr %4, align 8
  %15 = getelementptr inbounds nuw i8, ptr %4, i64 8
  store ptr @__func__._ZNK32pxrInternal_v0_24__pxrReserved__8TfRefPtrINS_21UsdSkel_AnimQueryImplEEptEv, ptr %15, align 8
  %16 = getelementptr inbounds nuw i8, ptr %4, i64 16
  store i64 936, ptr %16, align 8
  %17 = getelementptr inbounds nuw i8, ptr %4, i64 24
  store ptr @__PRETTY_FUNCTION__._ZNK32pxrInternal_v0_24__pxrReserved__8TfRefPtrINS_21UsdSkel_AnimQueryImplEEptEv, ptr %17, align 8
  %18 = getelementptr inbounds nuw i8, ptr %4, i64 32
  store i8 0, ptr %18, align 8
  call void @_ZN32pxrInternal_v0_24__pxrReserved__40Tf_PostNullSmartPtrDereferenceFatalErrorERKNS_13TfCallContextEPKc(ptr noundef nonnull align 8 dereferenceable(33) %4, ptr noundef nonnull @_ZTSN32pxrInternal_v0_24__pxrReserved__8TfRefPtrINS_21UsdSkel_AnimQueryImplEEE) #11
  unreachable

_ZNK32pxrInternal_v0_24__pxrReserved__8TfRefPtrINS_21UsdSkel_AnimQueryImplEEptEv.exit: ; preds = %.critedge.thread, %.critedge
  %19 = phi ptr [ %6, %.critedge.thread ], [ %.pr, %.critedge ]
  call void @llvm.lifetime.end.p0(i64 40, ptr nonnull %4)
  %20 = load ptr, ptr %19, align 8
  %21 = getelementptr inbounds i8, ptr %20, i64 80
  %22 = load ptr, ptr %21, align 8
  %23 = call noundef zeroext i1 %22(ptr noundef nonnull align 8 dereferenceable(96) %19, ptr noundef nonnull align 8 dereferenceable(32) %1, ptr noundef %2)
  br label %24

24:                                               ; preds = %7, %_ZNK32pxrInternal_v0_24__pxrReserved__8TfRefPtrINS_21UsdSkel_AnimQueryImplEEptEv.exit
  %.0 = phi i1 [ %23, %_ZNK32pxrInternal_v0_24__pxrReserved__8TfRefPtrINS_21UsdSkel_AnimQueryImplEEptEv.exit ], [ false, %7 ]
  ret i1 %.0
}